; Function Attrs: mustprogress nounwind uwtable
define hidden void @_ZN4llvm16DAGTypeLegalizer25ExpandRes_EXTRACT_ELEMENTEPNS_6SDNodeERNS_7SDValueES4_(ptr noundef nonnull align 8 dereferenceable(2512) %0, ptr noundef readonly captures(none) %1, ptr noundef nonnull align 8 dereferenceable(12) %2, ptr noundef nonnull align 8 dereferenceable(12) %3) local_unnamed_addr #0 align 2 {
  %5 = alloca %"struct.llvm::EVT", align 8
  %6 = getelementptr inbounds nuw i8, ptr %1, i64 40
  %7 = load ptr, ptr %6, align 8
  %.sroa.04.0.copyload = load ptr, ptr %7, align 8
  %.sroa.25.0..sroa_idx = getelementptr inbounds nuw i8, ptr %7, i64 8
  %.sroa.25.0.copyload = load i32, ptr %.sroa.25.0..sroa_idx, align 8
  call void @llvm.lifetime.start.p0(i64 16, ptr nonnull %5)
  %8 = getelementptr inbounds nuw i8, ptr %.sroa.04.0.copyload, i64 48
  %9 = load ptr, ptr %8, align 8
  %10 = zext i32 %.sroa.25.0.copyload to i64
  %11 = getelementptr inbounds nuw %"struct.llvm::EVT", ptr %9, i64 %10
  %.sroa.0.0.copyload.i.i.i = load i16, ptr %11, align 8
  %.sroa.21.0..sroa_idx.i.i.i = getelementptr inbounds nuw i8, ptr %11, i64 8
  %.sroa.21.0.copyload.i.i.i = load ptr, ptr %.sroa.21.0..sroa_idx.i.i.i, align 8
  store i16 %.sroa.0.0.copyload.i.i.i, ptr %5, align 8
  %12 = getelementptr inbounds nuw i8, ptr %5, i64 8
  store ptr %.sroa.21.0.copyload.i.i.i, ptr %12, align 8
  %.not.i.i = icmp eq i16 %.sroa.0.0.copyload.i.i.i, 0
  br i1 %.not.i.i, label %17, label %13

13:                                               ; preds = %4
  %14 = add i16 %.sroa.0.0.copyload.i.i.i, -2
  %or.cond.i.i.i = icmp ult i16 %14, 8
  %15 = add i16 %.sroa.0.0.copyload.i.i.i, -17
  %or.cond3.i.i.i = icmp ult i16 %15, 71
  %or.cond4.i.i.i = or i1 %or.cond.i.i.i, %or.cond3.i.i.i
  %16 = add i16 %.sroa.0.0.copyload.i.i.i, -137
  %spec.select.i.i.i = icmp ult i16 %16, 32
  %or.cond.i = or i1 %spec.select.i.i.i, %or.cond4.i.i.i
  br i1 %or.cond.i, label %_ZNK4llvm3EVT9isIntegerEv.exit.thread.i, label %19

17:                                               ; preds = %4
  %18 = call noundef zeroext i1 @_ZNK4llvm3EVT17isExtendedIntegerEv(ptr noundef nonnull align 8 dereferenceable(16) %5) #13
  br i1 %18, label %_ZNK4llvm3EVT9isIntegerEv.exit.thread.i, label %19

_ZNK4llvm3EVT9isIntegerEv.exit.thread.i:          ; preds = %17, %13
  call void @_ZN4llvm16DAGTypeLegalizer18GetExpandedIntegerENS_7SDValueERS1_S2_(ptr noundef nonnull align 8 dereferenceable(2512) %0, ptr nonnull %.sroa.04.0.copyload, i32 %.sroa.25.0.copyload, ptr noundef nonnull align 8 dereferenceable(12) %2, ptr noundef nonnull align 8 dereferenceable(12) %3) #12
  br label %_ZN4llvm16DAGTypeLegalizer13GetExpandedOpENS_7SDValueERS1_S2_.exit

19:                                               ; preds = %17, %13
  call void @_ZN4llvm16DAGTypeLegalizer16GetExpandedFloatENS_7SDValueERS1_S2_(ptr noundef nonnull align 8 dereferenceable(2512) %0, ptr nonnull %.sroa.04.0.copyload, i32 %.sroa.25.0.copyload, ptr noundef nonnull align 8 dereferenceable(12) %2, ptr noundef nonnull align 8 dereferenceable(12) %3) #12
  br label %_ZN4llvm16DAGTypeLegalizer13GetExpandedOpENS_7SDValueERS1_S2_.exit

_ZN4llvm16DAGTypeLegalizer13GetExpandedOpENS_7SDValueERS1_S2_.exit: ; preds = %_ZNK4llvm3EVT9isIntegerEv.exit.thread.i, %19
  call void @llvm.lifetime.end.p0(i64 16, ptr nonnull %5)
  %20 = load ptr, ptr %6, align 8
  %21 = getelementptr inbounds nuw i8, ptr %20, i64 40
  %22 = load ptr, ptr %21, align 8
  %23 = getelementptr inbounds nuw i8, ptr %22, i64 88
  %24 = load ptr, ptr %23, align 8
  %25 = getelementptr inbounds nuw i8, ptr %24, i64 24
  %26 = getelementptr inbounds nuw i8, ptr %24, i64 32
  %27 = load i32, ptr %26, align 8
  %28 = icmp ult i32 %27, 65
  %29 = load ptr, ptr %25, align 8
  %.0.in.i.i.i.i = select i1 %28, ptr %25, ptr %29
  %.0.i.i.i.i = load i64, ptr %.0.in.i.i.i.i, align 8
  %.not = icmp eq i64 %.0.i.i.i.i, 0
  %30 = select i1 %.not, ptr %2, ptr %3
  %.sroa.01.0.copyload = load ptr, ptr %30, align 8
  %.sroa.22.0..sroa_idx = getelementptr inbounds nuw i8, ptr %30, i64 8
  %.sroa.22.0.copyload = load i32, ptr %.sroa.22.0..sroa_idx, align 8
  call void @_ZN4llvm16DAGTypeLegalizer15GetPairElementsENS_7SDValueERS1_S2_(ptr noundef nonnull align 8 dereferenceable(2512) %0, ptr %.sroa.01.0.copyload, i32 %.sroa.22.0.copyload, ptr noundef nonnull align 8 dereferenceable(12) %2, ptr noundef nonnull align 8 dereferenceable(12) %3) #12
  ret void
}